target datalayout = "e-m:e-p270:32:32-p271:32:32-p272:64:64-i64:64-i128:128-f80:128-n8:16:32:64-S128"
target triple = "x86_64-pc-linux-gnu"

%"struct.Luau::Compile::BuiltinVisitor" = type { %"class.Luau::AstVisitor", ptr, %"struct.std::array", ptr, ptr, ptr, ptr }
%"class.Luau::AstVisitor" = type { ptr }
%"struct.std::array" = type { [256 x i8] }

; Function Attrs: mustprogress nounwind uwtable
define linkonce_odr dso_local void @_ZN4Luau10AstVisitorD2Ev(ptr noundef nonnull align 8 dereferenceable(8) %0) unnamed_addr #2 comdat align 2 {
  %2 = alloca ptr, align 8
  store ptr %0, ptr %2, align 8, !tbaa !79
  ret void
}

; Function Attrs: mustprogress uwtable
define dso_local void @_ZN4Luau7Compile15analyzeBuiltinsERNS_12DenseHashMapIPNS_11AstExprCallEiNS_16DenseHashPointerESt8equal_toIS3_EEERKNS1_INS_7AstNameENS0_6GlobalESt4hashIS9_ES5_IS9_EEERKNS1_IPNS_8AstLocalENS0_8VariableES4_S5_ISI_EEERKNS_14CompileOptionsEPNS_7AstNodeERKNS_12AstNameTableE(ptr noundef nonnull align 8 dereferenceable(40) %0, ptr noundef nonnull align 8 dereferenceable(40) %1, ptr noundef nonnull align 8 dereferenceable(40) %2, ptr noundef nonnull align 8 dereferenceable(88) %3, ptr noundef %4, ptr noundef nonnull align 8 dereferenceable(56) %5) #3 personality ptr @__gxx_personality_v0 {
  %7 = alloca ptr, align 8
  %8 = alloca ptr, align 8
  %9 = alloca ptr, align 8
  %10 = alloca ptr, align 8
  %11 = alloca ptr, align 8
  %12 = alloca ptr, align 8
  %13 = alloca %"struct.Luau::Compile::BuiltinVisitor", align 8
  %14 = alloca ptr, align 8
  %15 = alloca i32, align 4
  store ptr %0, ptr %7, align 8, !tbaa !63
  store ptr %1, ptr %8, align 8, !tbaa !24
  store ptr %2, ptr %9, align 8, !tbaa !26
  store ptr %3, ptr %10, align 8, !tbaa !65
  store ptr %4, ptr %11, align 8, !tbaa !47
  store ptr %5, ptr %12, align 8, !tbaa !67
  call void @llvm.lifetime.start.p0(i64 304, ptr %13) #15
  %16 = load ptr, ptr %7, align 8, !tbaa !63
  %17 = load ptr, ptr %8, align 8, !tbaa !24
  %18 = load ptr, ptr %9, align 8, !tbaa !26
  %19 = load ptr, ptr %10, align 8, !tbaa !65
  %20 = load ptr, ptr %12, align 8, !tbaa !67
  call void @_ZN4Luau7Compile14BuiltinVisitorC2ERNS_12DenseHashMapIPNS_11AstExprCallEiNS_16DenseHashPointerESt8equal_toIS4_EEERKNS2_INS_7AstNameENS0_6GlobalESt4hashISA_ES6_ISA_EEERKNS2_IPNS_8AstLocalENS0_8VariableES5_S6_ISJ_EEERKNS_14CompileOptionsERKNS_12AstNameTableE(ptr noundef nonnull align 8 dereferenceable(304) %13, ptr noundef nonnull align 8 dereferenceable(40) %16, ptr noundef nonnull align 8 dereferenceable(40) %17, ptr noundef nonnull align 8 dereferenceable(40) %18, ptr noundef nonnull align 8 dereferenceable(88) %19, ptr noundef nonnull align 8 dereferenceable(56) %20)
  %21 = load ptr, ptr %11, align 8, !tbaa !47
  %22 = load ptr, ptr %21, align 8, !tbaa !69
  %23 = getelementptr inbounds ptr, ptr %22, i64 0
  %24 = load ptr, ptr %23, align 8
  invoke void %24(ptr noundef nonnull align 8 dereferenceable(28) %21, ptr noundef %13)
          to label %25 unwind label %26

25:                                               ; preds = %6
  call void @_ZN4Luau10AstVisitorD2Ev(ptr noundef nonnull align 8 dereferenceable(304) %13) #15
  call void @llvm.lifetime.end.p0(i64 304, ptr %13) #15
  ret void

26:                                               ; preds = %6
  %27 = landingpad { ptr, i32 }
          cleanup
  %28 = extractvalue { ptr, i32 } %27, 0
  store ptr %28, ptr %14, align 8
  %29 = extractvalue { ptr, i32 } %27, 1
  store i32 %29, ptr %15, align 4
  call void @_ZN4Luau10AstVisitorD2Ev(ptr noundef nonnull align 8 dereferenceable(304) %13) #15
  call void @llvm.lifetime.end.p0(i64 304, ptr %13) #15
  br label %30

30:                                               ; preds = %26
  %31 = load ptr, ptr %14, align 8
  %32 = load i32, ptr %15, align 4
  %33 = insertvalue { ptr, i32 } poison, ptr %31, 0
  %34 = insertvalue { ptr, i32 } %33, i32 %32, 1
  resume { ptr, i32 } %34
}