; Function Attrs: mustprogress uwtable
define dso_local void @_ZN4Luau7Compile15analyzeBuiltinsERNS_12DenseHashMapIPNS_11AstExprCallEiNS_16DenseHashPointerESt8equal_toIS3_EEERKNS1_INS_7AstNameENS0_6GlobalESt4hashIS9_ES5_IS9_EEERKNS1_IPNS_8AstLocalENS0_8VariableES4_S5_ISI_EEERKNS_14CompileOptionsEPNS_7AstNodeERKNS_12AstNameTableE(ptr noundef nonnull align 8 dereferenceable(40) %0, ptr noundef nonnull align 8 dereferenceable(40) %1, ptr noundef nonnull align 8 dereferenceable(40) %2, ptr noundef nonnull align 8 dereferenceable(88) %3, ptr noundef %4, ptr noundef nonnull align 8 dereferenceable(56) %5) local_unnamed_addr #4 personality ptr @__gxx_personality_v0 {
  %7 = alloca %"struct.Luau::Compile::BuiltinVisitor", align 8
  call void @llvm.lifetime.start.p0(i64 304, ptr nonnull %7) #13
  call void @_ZN4Luau7Compile14BuiltinVisitorC2ERNS_12DenseHashMapIPNS_11AstExprCallEiNS_16DenseHashPointerESt8equal_toIS4_EEERKNS2_INS_7AstNameENS0_6GlobalESt4hashISA_ES6_ISA_EEERKNS2_IPNS_8AstLocalENS0_8VariableES5_S6_ISJ_EEERKNS_14CompileOptionsERKNS_12AstNameTableE(ptr noundef nonnull align 8 dereferenceable(304) %7, ptr noundef nonnull align 8 dereferenceable(40) %0, ptr noundef nonnull align 8 dereferenceable(40) %1, ptr noundef nonnull align 8 dereferenceable(40) %2, ptr noundef nonnull align 8 dereferenceable(88) %3, ptr noundef nonnull align 8 dereferenceable(56) %5)
  %8 = load ptr, ptr %4, align 8, !tbaa !49
  %9 = load ptr, ptr %8, align 8
  call void %9(ptr noundef nonnull align 8 dereferenceable(28) %4, ptr noundef nonnull %7)
  call void @llvm.lifetime.end.p0(i64 304, ptr nonnull %7) #13
  ret void
}